target datalayout = "e-m:e-p270:32:32-p271:32:32-p272:64:64-i64:64-i128:128-f80:128-n8:16:32:64-S128"
target triple = "x86_64-pc-linux-gnu"

%struct.ossl_list_st_uint_set = type { ptr, ptr, i64 }
%struct.uint_set_item_st = type { %struct.anon, %struct.uint_range_st }
%struct.anon = type { ptr, ptr }
%struct.uint_range_st = type { i64, i64 }

@.str = private unnamed_addr constant [31 x i8] c"../openssl/ssl/quic/uint_set.c\00", align 1

; Function Attrs: inlinehint nounwind uwtable
define internal ptr @ossl_list_uint_set_next(ptr noundef %0) #1 {
  %2 = alloca ptr, align 8
  store ptr %0, ptr %2, align 8, !tbaa !8
  %3 = load ptr, ptr %2, align 8, !tbaa !8
  %4 = getelementptr inbounds nuw %struct.uint_set_item_st, ptr %3, i32 0, i32 0
  %5 = getelementptr inbounds nuw %struct.anon, ptr %4, i32 0, i32 0
  %6 = load ptr, ptr %5, align 8, !tbaa !15
  ret ptr %6
}

; Function Attrs: inlinehint nounwind uwtable
define internal ptr @ossl_list_uint_set_head(ptr noundef %0) #1 {
  %2 = alloca ptr, align 8
  store ptr %0, ptr %2, align 8, !tbaa !3
  %3 = load ptr, ptr %2, align 8, !tbaa !3
  %4 = getelementptr inbounds nuw %struct.ossl_list_st_uint_set, ptr %3, i32 0, i32 0
  %5 = load ptr, ptr %4, align 8, !tbaa !12
  ret ptr %5
}

; Function Attrs: nounwind uwtable
define void @ossl_uint_set_destroy(ptr noundef %0) #0 {
  %2 = alloca ptr, align 8
  %3 = alloca ptr, align 8
  %4 = alloca ptr, align 8
  store ptr %0, ptr %2, align 8, !tbaa !3
  call void @llvm.lifetime.start.p0(i64 8, ptr %3) #6
  call void @llvm.lifetime.start.p0(i64 8, ptr %4) #6
  %5 = load ptr, ptr %2, align 8, !tbaa !3
  %6 = call ptr @ossl_list_uint_set_head(ptr noundef %5)
  store ptr %6, ptr %3, align 8, !tbaa !8
  br label %7

7:                                                ; preds = %14, %1
  %8 = load ptr, ptr %3, align 8, !tbaa !8
  %9 = icmp ne ptr %8, null
  br i1 %9, label %10, label %16

10:                                               ; preds = %7
  %11 = load ptr, ptr %3, align 8, !tbaa !8
  %12 = call ptr @ossl_list_uint_set_next(ptr noundef %11)
  store ptr %12, ptr %4, align 8, !tbaa !8
  %13 = load ptr, ptr %3, align 8, !tbaa !8
  call void @CRYPTO_free(ptr noundef %13, ptr noundef @.str, i32 noundef 71)
  br label %14

14:                                               ; preds = %10
  %15 = load ptr, ptr %4, align 8, !tbaa !8
  store ptr %15, ptr %3, align 8, !tbaa !8
  br label %7, !llvm.loop !10

16:                                               ; preds = %7
  call void @llvm.lifetime.end.p0(i64 8, ptr %4) #6
  call void @llvm.lifetime.end.p0(i64 8, ptr %3) #6
  ret void
}