; Function Attrs: nounwind uwtable
define void @ossl_uint_set_destroy(ptr noundef readonly captures(none) %0) local_unnamed_addr #1 {
  %.val = load ptr, ptr %0, align 8, !tbaa !3
  %.not5 = icmp eq ptr %.val, null
  br i1 %.not5, label %._crit_edge, label %.lr.ph

.lr.ph:                                           ; preds = %1, %.lr.ph
  %.06 = phi ptr [ %.0.val, %.lr.ph ], [ %.val, %1 ]
  %.0.val = load ptr, ptr %.06, align 8, !tbaa !10
  tail call void @CRYPTO_free(ptr noundef nonnull %.06, ptr noundef nonnull @.str, i32 noundef 71) #6
  %.not = icmp eq ptr %.0.val, null
  br i1 %.not, label %._crit_edge, label %.lr.ph, !llvm.loop !14

._crit_edge:                                      ; preds = %.lr.ph, %1
  ret void
}